target datalayout = "e-m:e-p270:32:32-p271:32:32-p272:64:64-i64:64-i128:128-f80:128-n8:16:32:64-S128"
target triple = "x86_64-pc-linux-gnu"

%struct.AVRational = type { i32, i32 }
%struct.AVMasteringDisplayMetadata = type { [3 x [2 x %struct.AVRational]], [2 x %struct.AVRational], %struct.AVRational, %struct.AVRational, i32, i32 }
%struct.AVFrameSideData = type { i32, ptr, i64, ptr, ptr }

; Function Attrs: nounwind uwtable
define ptr @av_mastering_display_metadata_alloc() #0 {
  %1 = call ptr @av_mastering_display_metadata_alloc_size(ptr noundef null)
  ret ptr %1
}

; Function Attrs: nounwind uwtable
define ptr @av_mastering_display_metadata_alloc_size(ptr noundef %0) #0 {
  %2 = alloca ptr, align 8
  %3 = alloca ptr, align 8
  %4 = alloca ptr, align 8
  %5 = alloca i32, align 4
  store ptr %0, ptr %3, align 8, !tbaa !4
  call void @llvm.lifetime.start.p0(i64 8, ptr %4) #5
  %6 = call noalias ptr @av_mallocz(i64 noundef 88)
  store ptr %6, ptr %4, align 8, !tbaa !9
  %7 = load ptr, ptr %4, align 8, !tbaa !9
  %8 = icmp ne ptr %7, null
  br i1 %8, label %10, label %9

9:                                                ; preds = %1
  store ptr null, ptr %2, align 8
  store i32 1, ptr %5, align 4
  br label %18

10:                                               ; preds = %1
  %11 = load ptr, ptr %4, align 8, !tbaa !9
  call void @get_defaults(ptr noundef %11)
  %12 = load ptr, ptr %3, align 8, !tbaa !4
  %13 = icmp ne ptr %12, null
  br i1 %13, label %14, label %16

14:                                               ; preds = %10
  %15 = load ptr, ptr %3, align 8, !tbaa !4
  store i64 88, ptr %15, align 8, !tbaa !11
  br label %16

16:                                               ; preds = %14, %10
  %17 = load ptr, ptr %4, align 8, !tbaa !9
  store ptr %17, ptr %2, align 8
  store i32 1, ptr %5, align 4
  br label %18

18:                                               ; preds = %16, %9
  call void @llvm.lifetime.end.p0(i64 8, ptr %4) #5
  %19 = load ptr, ptr %2, align 8
  ret ptr %19
}

; Function Attrs: nocallback nofree nosync nounwind willreturn memory(argmem: readwrite)
declare void @llvm.lifetime.start.p0(i64 immarg, ptr captures(none)) #1

declare noalias ptr @av_mallocz(i64 noundef) #2

; Function Attrs: nounwind uwtable
define internal void @get_defaults(ptr noundef %0) #0 {
  %2 = alloca ptr, align 8
  %3 = alloca i32, align 4
  %4 = alloca i32, align 4
  %5 = alloca i32, align 4
  %6 = alloca %struct.AVRational, align 4
  %7 = alloca %struct.AVRational, align 4
  store ptr %0, ptr %2, align 8, !tbaa !9
  call void @llvm.lifetime.start.p0(i64 4, ptr %3) #5
  store i32 0, ptr %3, align 4, !tbaa !13
  br label %8

8:                                                ; preds = %32, %1
  %9 = load i32, ptr %3, align 4, !tbaa !13
  %10 = icmp slt i32 %9, 3
  br i1 %10, label %12, label %11

11:                                               ; preds = %8
  store i32 2, ptr %4, align 4
  call void @llvm.lifetime.end.p0(i64 4, ptr %3) #5
  br label %35

12:                                               ; preds = %8
  call void @llvm.lifetime.start.p0(i64 4, ptr %5) #5
  store i32 0, ptr %5, align 4, !tbaa !13
  br label %13

13:                                               ; preds = %28, %12
  %14 = load i32, ptr %5, align 4, !tbaa !13
  %15 = icmp slt i32 %14, 2
  br i1 %15, label %17, label %16

16:                                               ; preds = %13
  store i32 5, ptr %4, align 4
  call void @llvm.lifetime.end.p0(i64 4, ptr %5) #5
  br label %31

17:                                               ; preds = %13
  %18 = load ptr, ptr %2, align 8, !tbaa !9
  %19 = getelementptr inbounds nuw %struct.AVMasteringDisplayMetadata, ptr %18, i32 0, i32 0
  %20 = load i32, ptr %3, align 4, !tbaa !13
  %21 = sext i32 %20 to i64
  %22 = getelementptr inbounds [3 x [2 x %struct.AVRational]], ptr %19, i64 0, i64 %21
  %23 = load i32, ptr %5, align 4, !tbaa !13
  %24 = sext i32 %23 to i64
  %25 = getelementptr inbounds [2 x %struct.AVRational], ptr %22, i64 0, i64 %24
  %26 = getelementptr inbounds nuw %struct.AVRational, ptr %6, i32 0, i32 0
  store i32 0, ptr %26, align 4, !tbaa !15
  %27 = getelementptr inbounds nuw %struct.AVRational, ptr %6, i32 0, i32 1
  store i32 1, ptr %27, align 4, !tbaa !17
  call void @llvm.memcpy.p0.p0.i64(ptr align 4 %25, ptr align 4 %6, i64 8, i1 false), !tbaa.struct !18
  br label %28

28:                                               ; preds = %17
  %29 = load i32, ptr %5, align 4, !tbaa !13
  %30 = add nsw i32 %29, 1
  store i32 %30, ptr %5, align 4, !tbaa !13
  br label %13, !llvm.loop !19

31:                                               ; preds = %16
  br label %32

32:                                               ; preds = %31
  %33 = load i32, ptr %3, align 4, !tbaa !13
  %34 = add nsw i32 %33, 1
  store i32 %34, ptr %3, align 4, !tbaa !13
  br label %8, !llvm.loop !21

35:                                               ; preds = %11
  %36 = load ptr, ptr %2, align 8, !tbaa !9
  %37 = getelementptr inbounds nuw %struct.AVMasteringDisplayMetadata, ptr %36, i32 0, i32 1
  %38 = getelementptr inbounds [2 x %struct.AVRational], ptr %37, i64 0, i64 0
  %39 = load ptr, ptr %2, align 8, !tbaa !9
  %40 = getelementptr inbounds nuw %struct.AVMasteringDisplayMetadata, ptr %39, i32 0, i32 1
  %41 = getelementptr inbounds [2 x %struct.AVRational], ptr %40, i64 0, i64 1
  %42 = load ptr, ptr %2, align 8, !tbaa !9
  %43 = getelementptr inbounds nuw %struct.AVMasteringDisplayMetadata, ptr %42, i32 0, i32 2
  %44 = load ptr, ptr %2, align 8, !tbaa !9
  %45 = getelementptr inbounds nuw %struct.AVMasteringDisplayMetadata, ptr %44, i32 0, i32 3
  %46 = getelementptr inbounds nuw %struct.AVRational, ptr %7, i32 0, i32 0
  store i32 0, ptr %46, align 4, !tbaa !15
  %47 = getelementptr inbounds nuw %struct.AVRational, ptr %7, i32 0, i32 1
  store i32 1, ptr %47, align 4, !tbaa !17
  call void @llvm.memcpy.p0.p0.i64(ptr align 4 %45, ptr align 4 %7, i64 8, i1 false), !tbaa.struct !18
  call void @llvm.memcpy.p0.p0.i64(ptr align 4 %43, ptr align 4 %45, i64 8, i1 false), !tbaa.struct !18
  call void @llvm.memcpy.p0.p0.i64(ptr align 4 %41, ptr align 4 %43, i64 8, i1 false), !tbaa.struct !18
  call void @llvm.memcpy.p0.p0.i64(ptr align 4 %38, ptr align 4 %41, i64 8, i1 false), !tbaa.struct !18
  ret void
}

; Function Attrs: nocallback nofree nosync nounwind willreturn memory(argmem: readwrite)
declare void @llvm.lifetime.end.p0(i64 immarg, ptr captures(none)) #1

; Function Attrs: nounwind uwtable
define ptr @av_mastering_display_metadata_create_side_data(ptr noundef %0) #0 {
  %2 = alloca ptr, align 8
  %3 = alloca ptr, align 8
  %4 = alloca ptr, align 8
  %5 = alloca i32, align 4
  store ptr %0, ptr %3, align 8, !tbaa !22
  call void @llvm.lifetime.start.p0(i64 8, ptr %4) #5
  %6 = load ptr, ptr %3, align 8, !tbaa !22
  %7 = call ptr @av_frame_new_side_data(ptr noundef %6, i32 noundef 11, i64 noundef 88)
  store ptr %7, ptr %4, align 8, !tbaa !24
  %8 = load ptr, ptr %4, align 8, !tbaa !24
  %9 = icmp ne ptr %8, null
  br i1 %9, label %11, label %10

10:                                               ; preds = %1
  store ptr null, ptr %2, align 8
  store i32 1, ptr %5, align 4
  br label %21

11:                                               ; preds = %1
  %12 = load ptr, ptr %4, align 8, !tbaa !24
  %13 = getelementptr inbounds nuw %struct.AVFrameSideData, ptr %12, i32 0, i32 1
  %14 = load ptr, ptr %13, align 8, !tbaa !26
  call void @llvm.memset.p0.i64(ptr align 1 %14, i8 0, i64 88, i1 false)
  %15 = load ptr, ptr %4, align 8, !tbaa !24
  %16 = getelementptr inbounds nuw %struct.AVFrameSideData, ptr %15, i32 0, i32 1
  %17 = load ptr, ptr %16, align 8, !tbaa !26
  call void @get_defaults(ptr noundef %17)
  %18 = load ptr, ptr %4, align 8, !tbaa !24
  %19 = getelementptr inbounds nuw %struct.AVFrameSideData, ptr %18, i32 0, i32 1
  %20 = load ptr, ptr %19, align 8, !tbaa !26
  store ptr %20, ptr %2, align 8
  store i32 1, ptr %5, align 4
  br label %21

21:                                               ; preds = %11, %10
  call void @llvm.lifetime.end.p0(i64 8, ptr %4) #5
  %22 = load ptr, ptr %2, align 8
  ret ptr %22
}

declare ptr @av_frame_new_side_data(ptr noundef, i32 noundef, i64 noundef) #2

; Function Attrs: nocallback nofree nounwind willreturn memory(argmem: write)
declare void @llvm.memset.p0.i64(ptr writeonly captures(none), i8, i64, i1 immarg) #3

; Function Attrs: nounwind uwtable
define ptr @av_content_light_metadata_alloc(ptr noundef %0) #0 {
  %2 = alloca ptr, align 8
  %3 = alloca ptr, align 8
  store ptr %0, ptr %2, align 8, !tbaa !4
  call void @llvm.lifetime.start.p0(i64 8, ptr %3) #5
  %4 = call noalias ptr @av_mallocz(i64 noundef 8)
  store ptr %4, ptr %3, align 8, !tbaa !31
  %5 = load ptr, ptr %2, align 8, !tbaa !4
  %6 = icmp ne ptr %5, null
  br i1 %6, label %7, label %9

7:                                                ; preds = %1
  %8 = load ptr, ptr %2, align 8, !tbaa !4
  store i64 8, ptr %8, align 8, !tbaa !11
  br label %9

9:                                                ; preds = %7, %1
  %10 = load ptr, ptr %3, align 8, !tbaa !31
  call void @llvm.lifetime.end.p0(i64 8, ptr %3) #5
  ret ptr %10
}

; Function Attrs: nounwind uwtable
define ptr @av_content_light_metadata_create_side_data(ptr noundef %0) #0 {
  %2 = alloca ptr, align 8
  %3 = alloca ptr, align 8
  %4 = alloca ptr, align 8
  %5 = alloca i32, align 4
  store ptr %0, ptr %3, align 8, !tbaa !22
  call void @llvm.lifetime.start.p0(i64 8, ptr %4) #5
  %6 = load ptr, ptr %3, align 8, !tbaa !22
  %7 = call ptr @av_frame_new_side_data(ptr noundef %6, i32 noundef 14, i64 noundef 8)
  store ptr %7, ptr %4, align 8, !tbaa !24
  %8 = load ptr, ptr %4, align 8, !tbaa !24
  %9 = icmp ne ptr %8, null
  br i1 %9, label %11, label %10

10:                                               ; preds = %1
  store ptr null, ptr %2, align 8
  store i32 1, ptr %5, align 4
  br label %18

11:                                               ; preds = %1
  %12 = load ptr, ptr %4, align 8, !tbaa !24
  %13 = getelementptr inbounds nuw %struct.AVFrameSideData, ptr %12, i32 0, i32 1
  %14 = load ptr, ptr %13, align 8, !tbaa !26
  call void @llvm.memset.p0.i64(ptr align 1 %14, i8 0, i64 8, i1 false)
  %15 = load ptr, ptr %4, align 8, !tbaa !24
  %16 = getelementptr inbounds nuw %struct.AVFrameSideData, ptr %15, i32 0, i32 1
  %17 = load ptr, ptr %16, align 8, !tbaa !26
  store ptr %17, ptr %2, align 8
  store i32 1, ptr %5, align 4
  br label %18

18:                                               ; preds = %11, %10
  call void @llvm.lifetime.end.p0(i64 8, ptr %4) #5
  %19 = load ptr, ptr %2, align 8
  ret ptr %19
}

; Function Attrs: nocallback nofree nounwind willreturn memory(argmem: readwrite)
declare void @llvm.memcpy.p0.p0.i64(ptr noalias writeonly captures(none), ptr noalias readonly captures(none), i64, i1 immarg) #4


!llvm.module.flags = !{!0, !1, !2, !3}

!0 = !{i32 1, !"wchar_size", i32 4}
!1 = !{i32 8, !"PIC Level", i32 2}
!2 = !{i32 7, !"uwtable", i32 2}
!3 = !{i32 1, !"override-stack-alignment", i32 16}
!4 = !{!5, !5, i64 0}
!5 = !{!"p1 long", !6, i64 0}
!6 = !{!"any pointer", !7, i64 0}
!7 = !{!"omnipotent char", !8, i64 0}
!8 = !{!"Simple C/C++ TBAA"}
!9 = !{!10, !10, i64 0}
!10 = !{!"p1 _ZTS26AVMasteringDisplayMetadata", !6, i64 0}
!11 = !{!12, !12, i64 0}
!12 = !{!"long", !7, i64 0}
!13 = !{!14, !14, i64 0}
!14 = !{!"int", !7, i64 0}
!15 = !{!16, !14, i64 0}
!16 = !{!"AVRational", !14, i64 0, !14, i64 4}
!17 = !{!16, !14, i64 4}
!18 = !{i64 0, i64 4, !13, i64 4, i64 4, !13}
!19 = distinct !{!19, !20}
!20 = !{!"llvm.loop.mustprogress"}
!21 = distinct !{!21, !20}
!22 = !{!23, !23, i64 0}
!23 = !{!"p1 _ZTS7AVFrame", !6, i64 0}
!24 = !{!25, !25, i64 0}
!25 = !{!"p1 _ZTS15AVFrameSideData", !6, i64 0}
!26 = !{!27, !28, i64 8}
!27 = !{!"AVFrameSideData", !14, i64 0, !28, i64 8, !12, i64 16, !29, i64 24, !30, i64 32}
!28 = !{!"p1 omnipotent char", !6, i64 0}
!29 = !{!"p1 _ZTS12AVDictionary", !6, i64 0}
!30 = !{!"p1 _ZTS11AVBufferRef", !6, i64 0}
!31 = !{!32, !32, i64 0}
!32 = !{!"p1 _ZTS22AVContentLightMetadata", !6, i64 0}
